target datalayout = "e-m:e-p270:32:32-p271:32:32-p272:64:64-i64:64-i128:128-f80:128-n8:16:32:64-S128"
target triple = "x86_64-unknown-linux-gnu"

%"class.icu_75::UnicodeString" = type { %"class.icu_75::Replaceable", %"union.icu_75::UnicodeString::StackBufferOrFields" }
%"class.icu_75::Replaceable" = type { %"class.icu_75::UObject" }
%"class.icu_75::UObject" = type { ptr }
%"union.icu_75::UnicodeString::StackBufferOrFields" = type { %struct.anon.0, [32 x i8] }
%struct.anon.0 = type { i16, i32, i32, ptr }
%"class.icu_75::NumberingSystem" = type <{ %"class.icu_75::UObject", %"class.icu_75::UnicodeString", i32, i8, [9 x i8], [2 x i8] }>
%struct.anon = type { i16, [27 x i16] }

@_ZTVN6icu_757UObjectE = external unnamed_addr constant { [5 x ptr] }, align 8
@_ZTVN6icu_7513UnicodeStringE = external unnamed_addr constant { [13 x ptr] }, align 8
@_ZTVN6icu_7511ReplaceableE = external unnamed_addr constant { [13 x ptr] }, align 8

; Function Attrs: mustprogress nounwind uwtable
define linkonce_odr void @_ZN6icu_757UObjectC2Ev(ptr noundef nonnull align 8 dereferenceable(8) %this) unnamed_addr #0 comdat align 2 {
entry:
  %this.addr = alloca ptr, align 8
  store ptr %this, ptr %this.addr, align 8
  %this1 = load ptr, ptr %this.addr, align 8
  store ptr getelementptr inbounds ({ [5 x ptr] }, ptr @_ZTVN6icu_757UObjectE, i32 0, i32 0, i32 2), ptr %this1, align 8
  ret void
}

; Function Attrs: mustprogress nounwind uwtable
define linkonce_odr noundef nonnull align 8 dereferenceable(8) ptr @_ZN6icu_757UObjectaSERKS0_(ptr noundef nonnull align 8 dereferenceable(8) %this, ptr noundef nonnull align 8 dereferenceable(8) %0) #0 comdat align 2 {
entry:
  %this.addr = alloca ptr, align 8
  %.addr = alloca ptr, align 8
  store ptr %this, ptr %this.addr, align 8
  store ptr %0, ptr %.addr, align 8
  %this1 = load ptr, ptr %this.addr, align 8
  ret ptr %this1
}

; Function Attrs: mustprogress nounwind uwtable
define linkonce_odr void @_ZN6icu_7511ReplaceableC2Ev(ptr noundef nonnull align 8 dereferenceable(8) %this) unnamed_addr #0 comdat align 2 {
entry:
  %this.addr = alloca ptr, align 8
  store ptr %this, ptr %this.addr, align 8
  %this1 = load ptr, ptr %this.addr, align 8
  call void @_ZN6icu_757UObjectC2Ev(ptr noundef nonnull align 8 dereferenceable(8) %this1) #8
  store ptr getelementptr inbounds ({ [13 x ptr] }, ptr @_ZTVN6icu_7511ReplaceableE, i32 0, i32 0, i32 2), ptr %this1, align 8
  ret void
}

; Function Attrs: mustprogress uwtable
define linkonce_odr noundef nonnull align 8 dereferenceable(86) ptr @_ZN6icu_7515NumberingSystemaSERKS0_(ptr noundef nonnull align 8 dereferenceable(86) %this, ptr noundef nonnull align 8 dereferenceable(86) %other) #1 comdat align 2 {
entry:
  %this.addr = alloca ptr, align 8
  %other.addr = alloca ptr, align 8
  store ptr %this, ptr %this.addr, align 8
  store ptr %other, ptr %other.addr, align 8
  %this1 = load ptr, ptr %this.addr, align 8
  %0 = load ptr, ptr %other.addr, align 8
  %call = call noundef nonnull align 8 dereferenceable(8) ptr @_ZN6icu_757UObjectaSERKS0_(ptr noundef nonnull align 8 dereferenceable(8) %this1, ptr noundef nonnull align 8 dereferenceable(8) %0) #8
  %desc = getelementptr inbounds %"class.icu_75::NumberingSystem", ptr %this1, i32 0, i32 1
  %1 = load ptr, ptr %other.addr, align 8
  %desc2 = getelementptr inbounds %"class.icu_75::NumberingSystem", ptr %1, i32 0, i32 1
  %call3 = call noundef nonnull align 8 dereferenceable(64) ptr @_ZN6icu_7513UnicodeStringaSERKS0_(ptr noundef nonnull align 8 dereferenceable(64) %desc, ptr noundef nonnull align 8 dereferenceable(64) %desc2)
  %radix = getelementptr inbounds %"class.icu_75::NumberingSystem", ptr %this1, i32 0, i32 2
  %2 = load ptr, ptr %other.addr, align 8
  %radix4 = getelementptr inbounds %"class.icu_75::NumberingSystem", ptr %2, i32 0, i32 2
  call void @llvm.memcpy.p0.p0.i64(ptr align 8 %radix, ptr align 8 %radix4, i64 14, i1 false)
  ret ptr %this1
}

; Function Attrs: mustprogress uwtable
define linkonce_odr void @_ZN6icu_7513UnicodeStringC2Ev(ptr noundef nonnull align 8 dereferenceable(64) %this) unnamed_addr #1 comdat align 2 {
entry:
  %this.addr = alloca ptr, align 8
  store ptr %this, ptr %this.addr, align 8
  %this1 = load ptr, ptr %this.addr, align 8
  call void @_ZN6icu_7511ReplaceableC2Ev(ptr noundef nonnull align 8 dereferenceable(8) %this1)
  store ptr getelementptr inbounds ({ [13 x ptr] }, ptr @_ZTVN6icu_7513UnicodeStringE, i32 0, i32 0, i32 2), ptr %this1, align 8
  %fUnion2 = getelementptr inbounds %"class.icu_75::UnicodeString", ptr %this1, i32 0, i32 1
  %fLengthAndFlags = getelementptr inbounds %struct.anon, ptr %fUnion2, i32 0, i32 0
  store i16 2, ptr %fLengthAndFlags, align 8
  ret void
}

; Function Attrs: mustprogress nounwind uwtable
define linkonce_odr void @_ZN6icu_757UObjectC2ERKS0_(ptr noundef nonnull align 8 dereferenceable(8) %this, ptr noundef nonnull align 8 dereferenceable(8) %0) unnamed_addr #0 comdat align 2 {
entry:
  %this.addr = alloca ptr, align 8
  %.addr = alloca ptr, align 8
  store ptr %this, ptr %this.addr, align 8
  store ptr %0, ptr %.addr, align 8
  %this1 = load ptr, ptr %this.addr, align 8
  store ptr getelementptr inbounds ({ [5 x ptr] }, ptr @_ZTVN6icu_757UObjectE, i32 0, i32 0, i32 2), ptr %this1, align 8
  ret void
}

; Function Attrs: mustprogress uwtable
define void @_ZN6icu_7515NumberingSystemC2ERKS0_(ptr noundef nonnull align 8 dereferenceable(86) %this, ptr noundef nonnull align 8 dereferenceable(86) %other) unnamed_addr #1 align 2 personality ptr @__gxx_personality_v0 {
entry:
  %this.addr = alloca ptr, align 8
  %other.addr = alloca ptr, align 8
  %exn.slot = alloca ptr, align 8
  %ehselector.slot = alloca i32, align 4
  store ptr %this, ptr %this.addr, align 8
  store ptr %other, ptr %other.addr, align 8
  %this1 = load ptr, ptr %this.addr, align 8
  %0 = load ptr, ptr %other.addr, align 8
  call void @_ZN6icu_757UObjectC2ERKS0_(ptr noundef nonnull align 8 dereferenceable(8) %this1, ptr noundef nonnull align 8 dereferenceable(8) %0) #8
  store ptr getelementptr inbounds ({ [6 x ptr] }, ptr @_ZTVN6icu_7515NumberingSystemE, i32 0, i32 0, i32 2), ptr %this1, align 8
  %desc = getelementptr inbounds %"class.icu_75::NumberingSystem", ptr %this1, i32 0, i32 1
  invoke void @_ZN6icu_7513UnicodeStringC2Ev(ptr noundef nonnull align 8 dereferenceable(64) %desc)
          to label %invoke.cont unwind label %lpad

invoke.cont:                                      ; preds = %entry
  %1 = load ptr, ptr %other.addr, align 8
  %call = invoke noundef nonnull align 8 dereferenceable(86) ptr @_ZN6icu_7515NumberingSystemaSERKS0_(ptr noundef nonnull align 8 dereferenceable(86) %this1, ptr noundef nonnull align 8 dereferenceable(86) %1)
          to label %invoke.cont3 unwind label %lpad2

invoke.cont3:                                     ; preds = %invoke.cont
  ret void

lpad:                                             ; preds = %entry
  %2 = landingpad { ptr, i32 }
          cleanup
  %3 = extractvalue { ptr, i32 } %2, 0
  store ptr %3, ptr %exn.slot, align 8
  %4 = extractvalue { ptr, i32 } %2, 1
  store i32 %4, ptr %ehselector.slot, align 4
  br label %ehcleanup

lpad2:                                            ; preds = %invoke.cont
  %5 = landingpad { ptr, i32 }
          cleanup
  %6 = extractvalue { ptr, i32 } %5, 0
  store ptr %6, ptr %exn.slot, align 8
  %7 = extractvalue { ptr, i32 } %5, 1
  store i32 %7, ptr %ehselector.slot, align 4
  call void @_ZN6icu_7513UnicodeStringD1Ev(ptr noundef nonnull align 8 dereferenceable(64) %desc) #8
  br label %ehcleanup

ehcleanup:                                        ; preds = %lpad2, %lpad
  call void @_ZN6icu_757UObjectD2Ev(ptr noundef nonnull align 8 dereferenceable(8) %this1) #8
  br label %eh.resume

eh.resume:                                        ; preds = %ehcleanup
  %exn = load ptr, ptr %exn.slot, align 8
  %sel = load i32, ptr %ehselector.slot, align 4
  %lpad.val = insertvalue { ptr, i32 } poison, ptr %exn, 0
  %lpad.val4 = insertvalue { ptr, i32 } %lpad.val, i32 %sel, 1
  resume { ptr, i32 } %lpad.val4
}