; Function Attrs: mustprogress uwtable
define void @_ZN6icu_7515NumberingSystemC2ERKS0_(ptr noundef nonnull align 8 dereferenceable(86) %this, ptr noundef nonnull align 8 dereferenceable(86) %other) unnamed_addr #1 align 2 personality ptr @__gxx_personality_v0 {
invoke.cont:
  store ptr getelementptr inbounds ({ [6 x ptr] }, ptr @_ZTVN6icu_7515NumberingSystemE, i64 0, i32 0, i64 2), ptr %this, align 8
  %desc = getelementptr inbounds i8, ptr %this, i64 8
  store ptr getelementptr inbounds ({ [13 x ptr] }, ptr @_ZTVN6icu_7513UnicodeStringE, i64 0, i32 0, i64 2), ptr %desc, align 8
  %fUnion2.i = getelementptr inbounds i8, ptr %this, i64 16
  store i16 2, ptr %fUnion2.i, align 8
  %desc2.i = getelementptr inbounds i8, ptr %other, i64 8
  %call3.i3 = invoke noundef nonnull align 8 dereferenceable(64) ptr @_ZN6icu_7513UnicodeStringaSERKS0_(ptr noundef nonnull align 8 dereferenceable(64) %desc, ptr noundef nonnull align 8 dereferenceable(64) %desc2.i)
          to label %invoke.cont3 unwind label %lpad2

invoke.cont3:                                     ; preds = %invoke.cont
  %radix.i = getelementptr inbounds i8, ptr %this, i64 72
  %radix4.i = getelementptr inbounds i8, ptr %other, i64 72
  tail call void @llvm.memcpy.p0.p0.i64(ptr noundef nonnull align 8 dereferenceable(14) %radix.i, ptr noundef nonnull align 8 dereferenceable(14) %radix4.i, i64 14, i1 false)
  ret void

lpad2:                                            ; preds = %invoke.cont
  %0 = landingpad { ptr, i32 }
          cleanup
  tail call void @_ZN6icu_7513UnicodeStringD1Ev(ptr noundef nonnull align 8 dereferenceable(64) %desc) #16
  tail call void @_ZN6icu_757UObjectD2Ev(ptr noundef nonnull align 8 dereferenceable(8) %this) #16
  resume { ptr, i32 } %0
}